target datalayout = "e-m:e-p270:32:32-p271:32:32-p272:64:64-i64:64-i128:128-f80:128-n8:16:32:64-S128"
target triple = "x86_64-pc-linux-gnu"

%struct.zentry = type { i64, i64, i64, i32 }
%struct.manifest_info = type { ptr, ptr, ptr, i8, ptr }

@manifest_name = internal global ptr @.str.4, align 8
@manifest = internal global ptr null, align 8
@.str = private unnamed_addr constant [17 x i8] c"Manifest-Version\00", align 1
@.str.1 = private unnamed_addr constant [11 x i8] c"Main-Class\00", align 1
@.str.2 = private unnamed_addr constant [12 x i8] c"JRE-Version\00", align 1
@.str.3 = private unnamed_addr constant [19 x i8] c"Splashscreen-Image\00", align 1

; Function Attrs: nounwind uwtable
define hidden i32 @JLI_ParseManifest(ptr noundef %0, ptr noundef %1) #0 {
  %3 = alloca i32, align 4
  %4 = alloca ptr, align 8
  %5 = alloca ptr, align 8
  %6 = alloca i32, align 4
  %7 = alloca %struct.zentry, align 8
  %8 = alloca ptr, align 8
  %9 = alloca ptr, align 8
  %10 = alloca ptr, align 8
  %11 = alloca i32, align 4
  store ptr %0, ptr %4, align 8
  store ptr %1, ptr %5, align 8
  %12 = load ptr, ptr %4, align 8
  %13 = call i32 (ptr, i32, ...) @open64(ptr noundef %12, i32 noundef 0)
  store i32 %13, ptr %6, align 4
  %14 = icmp eq i32 %13, -1
  br i1 %14, label %15, label %16

15:                                               ; preds = %2
  store i32 -1, ptr %3, align 4
  br label %89

16:                                               ; preds = %2
  %17 = load ptr, ptr %5, align 8
  %18 = getelementptr inbounds %struct.manifest_info, ptr %17, i32 0, i32 0
  store ptr null, ptr %18, align 8
  %19 = load ptr, ptr %5, align 8
  %20 = getelementptr inbounds %struct.manifest_info, ptr %19, i32 0, i32 1
  store ptr null, ptr %20, align 8
  %21 = load ptr, ptr %5, align 8
  %22 = getelementptr inbounds %struct.manifest_info, ptr %21, i32 0, i32 2
  store ptr null, ptr %22, align 8
  %23 = load ptr, ptr %5, align 8
  %24 = getelementptr inbounds %struct.manifest_info, ptr %23, i32 0, i32 3
  store i8 0, ptr %24, align 8
  %25 = load ptr, ptr %5, align 8
  %26 = getelementptr inbounds %struct.manifest_info, ptr %25, i32 0, i32 4
  store ptr null, ptr %26, align 8
  %27 = load i32, ptr %6, align 4
  %28 = load ptr, ptr @manifest_name, align 8
  %29 = call i32 @find_file(i32 noundef %27, ptr noundef %7, ptr noundef %28)
  store i32 %29, ptr %11, align 4
  %30 = icmp ne i32 %29, 0
  br i1 %30, label %31, label %34

31:                                               ; preds = %16
  %32 = load i32, ptr %6, align 4
  %33 = call i32 @close(i32 noundef %32)
  store i32 -2, ptr %3, align 4
  br label %89

34:                                               ; preds = %16
  %35 = load i32, ptr %6, align 4
  %36 = call ptr @inflate_file(i32 noundef %35, ptr noundef %7, ptr noundef null)
  store ptr %36, ptr @manifest, align 8
  %37 = load ptr, ptr @manifest, align 8
  %38 = icmp eq ptr %37, null
  br i1 %38, label %39, label %42

39:                                               ; preds = %34
  %40 = load i32, ptr %6, align 4
  %41 = call i32 @close(i32 noundef %40)
  store i32 -2, ptr %3, align 4
  br label %89

42:                                               ; preds = %34
  %43 = load ptr, ptr @manifest, align 8
  store ptr %43, ptr %8, align 8
  br label %44

44:                                               ; preds = %81, %42
  %45 = call i32 @parse_nv_pair(ptr noundef %8, ptr noundef %9, ptr noundef %10)
  store i32 %45, ptr %11, align 4
  %46 = icmp sgt i32 %45, 0
  br i1 %46, label %47, label %82

47:                                               ; preds = %44
  %48 = load ptr, ptr %9, align 8
  %49 = call i32 @strcasecmp(ptr noundef %48, ptr noundef @.str) #6
  %50 = icmp eq i32 %49, 0
  br i1 %50, label %51, label %55

51:                                               ; preds = %47
  %52 = load ptr, ptr %10, align 8
  %53 = load ptr, ptr %5, align 8
  %54 = getelementptr inbounds %struct.manifest_info, ptr %53, i32 0, i32 0
  store ptr %52, ptr %54, align 8
  br label %81

55:                                               ; preds = %47
  %56 = load ptr, ptr %9, align 8
  %57 = call i32 @strcasecmp(ptr noundef %56, ptr noundef @.str.1) #6
  %58 = icmp eq i32 %57, 0
  br i1 %58, label %59, label %63

59:                                               ; preds = %55
  %60 = load ptr, ptr %10, align 8
  %61 = load ptr, ptr %5, align 8
  %62 = getelementptr inbounds %struct.manifest_info, ptr %61, i32 0, i32 1
  store ptr %60, ptr %62, align 8
  br label %80

63:                                               ; preds = %55
  %64 = load ptr, ptr %9, align 8
  %65 = call i32 @strcasecmp(ptr noundef %64, ptr noundef @.str.2) #6
  %66 = icmp eq i32 %65, 0
  br i1 %66, label %67, label %70

67:                                               ; preds = %63
  %68 = load ptr, ptr %5, align 8
  %69 = getelementptr inbounds %struct.manifest_info, ptr %68, i32 0, i32 2
  store ptr null, ptr %69, align 8
  br label %79

70:                                               ; preds = %63
  %71 = load ptr, ptr %9, align 8
  %72 = call i32 @strcasecmp(ptr noundef %71, ptr noundef @.str.3) #6
  %73 = icmp eq i32 %72, 0
  br i1 %73, label %74, label %78

74:                                               ; preds = %70
  %75 = load ptr, ptr %10, align 8
  %76 = load ptr, ptr %5, align 8
  %77 = getelementptr inbounds %struct.manifest_info, ptr %76, i32 0, i32 4
  store ptr %75, ptr %77, align 8
  br label %78

78:                                               ; preds = %74, %70
  br label %79

79:                                               ; preds = %78, %67
  br label %80

80:                                               ; preds = %79, %59
  br label %81

81:                                               ; preds = %80, %51
  br label %44, !llvm.loop !6

82:                                               ; preds = %44
  %83 = load i32, ptr %6, align 4
  %84 = call i32 @close(i32 noundef %83)
  %85 = load i32, ptr %11, align 4
  %86 = icmp eq i32 %85, 0
  br i1 %86, label %87, label %88

87:                                               ; preds = %82
  store i32 0, ptr %3, align 4
  br label %89

88:                                               ; preds = %82
  store i32 -2, ptr %3, align 4
  br label %89

89:                                               ; preds = %88, %87, %39, %31, %15
  %90 = load i32, ptr %3, align 4
  ret i32 %90
}