; Function Attrs: nounwind uwtable
define hidden range(i32 -2, 1) i32 @JLI_ParseManifest(ptr nocapture noundef readonly %0, ptr nocapture noundef writeonly %1) local_unnamed_addr #0 {
  %3 = alloca %struct.zentry, align 8
  %4 = alloca ptr, align 8
  %5 = alloca ptr, align 8
  %6 = alloca ptr, align 8
  %7 = tail call i32 (ptr, i32, ...) @open64(ptr noundef %0, i32 noundef 0) #14
  %8 = icmp eq i32 %7, -1
  br i1 %8, label %48, label %9

9:                                                ; preds = %2
  %10 = getelementptr inbounds i8, ptr %1, i64 8
  %11 = getelementptr inbounds i8, ptr %1, i64 16
  %12 = getelementptr inbounds i8, ptr %1, i64 32
  store ptr null, ptr %12, align 8
  tail call void @llvm.memset.p0.i64(ptr noundef nonnull align 8 dereferenceable(25) %1, i8 0, i64 25, i1 false)
  %13 = call fastcc i32 @find_file(i32 noundef %7, ptr noundef nonnull %3, ptr noundef nonnull @.str.4)
  %.not = icmp eq i32 %13, 0
  br i1 %.not, label %16, label %14

14:                                               ; preds = %9
  %15 = tail call i32 @close(i32 noundef %7) #14
  br label %48

16:                                               ; preds = %9
  %17 = call fastcc ptr @inflate_file(i32 noundef %7, ptr noundef nonnull %3, ptr noundef null)
  store ptr %17, ptr @manifest, align 8
  %18 = icmp eq ptr %17, null
  br i1 %18, label %19, label %21

19:                                               ; preds = %16
  %20 = tail call i32 @close(i32 noundef %7) #14
  br label %48

21:                                               ; preds = %16
  store ptr %17, ptr %4, align 8
  %22 = call fastcc i32 @parse_nv_pair(ptr noundef nonnull %4, ptr noundef nonnull %5, ptr noundef nonnull %6)
  %23 = icmp sgt i32 %22, 0
  br i1 %23, label %.lr.ph, label %._crit_edge

.lr.ph:                                           ; preds = %21, %43
  %24 = load ptr, ptr %5, align 8
  %25 = tail call i32 @strcasecmp(ptr noundef %24, ptr noundef nonnull @.str) #15
  %26 = icmp eq i32 %25, 0
  br i1 %26, label %27, label %29

27:                                               ; preds = %.lr.ph
  %28 = load ptr, ptr %6, align 8
  store ptr %28, ptr %1, align 8
  br label %43

29:                                               ; preds = %.lr.ph
  %30 = tail call i32 @strcasecmp(ptr noundef %24, ptr noundef nonnull @.str.1) #15
  %31 = icmp eq i32 %30, 0
  br i1 %31, label %32, label %34

32:                                               ; preds = %29
  %33 = load ptr, ptr %6, align 8
  store ptr %33, ptr %10, align 8
  br label %43

34:                                               ; preds = %29
  %35 = tail call i32 @strcasecmp(ptr noundef %24, ptr noundef nonnull @.str.2) #15
  %36 = icmp eq i32 %35, 0
  br i1 %36, label %37, label %38

37:                                               ; preds = %34
  store ptr null, ptr %11, align 8
  br label %43

38:                                               ; preds = %34
  %39 = tail call i32 @strcasecmp(ptr noundef %24, ptr noundef nonnull @.str.3) #15
  %40 = icmp eq i32 %39, 0
  br i1 %40, label %41, label %43

41:                                               ; preds = %38
  %42 = load ptr, ptr %6, align 8
  store ptr %42, ptr %12, align 8
  br label %43

43:                                               ; preds = %32, %38, %41, %37, %27
  %44 = call fastcc i32 @parse_nv_pair(ptr noundef nonnull %4, ptr noundef nonnull %5, ptr noundef nonnull %6)
  %45 = icmp sgt i32 %44, 0
  br i1 %45, label %.lr.ph, label %._crit_edge, !llvm.loop !6

._crit_edge:                                      ; preds = %43, %21
  %.lcssa = phi i32 [ %22, %21 ], [ %44, %43 ]
  %46 = tail call i32 @close(i32 noundef %7) #14
  %47 = icmp eq i32 %.lcssa, 0
  %. = select i1 %47, i32 0, i32 -2
  br label %48

48:                                               ; preds = %._crit_edge, %2, %19, %14
  %.0 = phi i32 [ -2, %14 ], [ -2, %19 ], [ -1, %2 ], [ %., %._crit_edge ]
  ret i32 %.0
}